target datalayout = "e-m:e-p270:32:32-p271:32:32-p272:64:64-i64:64-i128:128-f80:128-n8:16:32:64-S128"
target triple = "x86_64-pc-linux-gnu"

%struct.fdt_header = type { i32, i32, i32, i32, i32, i32, i32, i32, i32, i32 }
%struct.fdt_property = type { i32, i32, i32, [0 x i8] }

; Function Attrs: inlinehint nounwind uwtable
define internal void @fdt_set_version(ptr noundef %0, i32 noundef %1) #2 {
  %3 = alloca ptr, align 8
  %4 = alloca i32, align 4
  %5 = alloca ptr, align 8
  store ptr %0, ptr %3, align 8, !tbaa !3
  store i32 %1, ptr %4, align 4, !tbaa !9
  call void @llvm.lifetime.start.p0(i64 8, ptr %5) #7
  %6 = load ptr, ptr %3, align 8, !tbaa !3
  store ptr %6, ptr %5, align 8, !tbaa !36
  %7 = load i32, ptr %4, align 4, !tbaa !9
  %8 = call i32 @cpu_to_fdt32(i32 noundef %7)
  %9 = load ptr, ptr %5, align 8, !tbaa !36
  %10 = getelementptr inbounds nuw %struct.fdt_header, ptr %9, i32 0, i32 5
  store i32 %8, ptr %10, align 4, !tbaa !38
  call void @llvm.lifetime.end.p0(i64 8, ptr %5) #7
  ret void
}

; Function Attrs: inlinehint nounwind uwtable
define internal i32 @fdt32_ld(ptr noundef %0) #2 {
  %2 = alloca ptr, align 8
  %3 = alloca ptr, align 8
  store ptr %0, ptr %2, align 8, !tbaa !27
  call void @llvm.lifetime.start.p0(i64 8, ptr %3) #7
  %4 = load ptr, ptr %2, align 8, !tbaa !27
  store ptr %4, ptr %3, align 8, !tbaa !17
  %5 = load ptr, ptr %3, align 8, !tbaa !17
  %6 = getelementptr inbounds i8, ptr %5, i64 0
  %7 = load i8, ptr %6, align 1, !tbaa !16
  %8 = zext i8 %7 to i32
  %9 = shl i32 %8, 24
  %10 = load ptr, ptr %3, align 8, !tbaa !17
  %11 = getelementptr inbounds i8, ptr %10, i64 1
  %12 = load i8, ptr %11, align 1, !tbaa !16
  %13 = zext i8 %12 to i32
  %14 = shl i32 %13, 16
  %15 = or i32 %9, %14
  %16 = load ptr, ptr %3, align 8, !tbaa !17
  %17 = getelementptr inbounds i8, ptr %16, i64 2
  %18 = load i8, ptr %17, align 1, !tbaa !16
  %19 = zext i8 %18 to i32
  %20 = shl i32 %19, 8
  %21 = or i32 %15, %20
  %22 = load ptr, ptr %3, align 8, !tbaa !17
  %23 = getelementptr inbounds i8, ptr %22, i64 3
  %24 = load i8, ptr %23, align 1, !tbaa !16
  %25 = zext i8 %24 to i32
  %26 = or i32 %21, %25
  call void @llvm.lifetime.end.p0(i64 8, ptr %3) #7
  ret i32 %26
}

; Function Attrs: inlinehint nounwind uwtable
define internal i32 @cpu_to_fdt32(i32 noundef %0) #2 {
  %2 = alloca i32, align 4
  store i32 %0, ptr %2, align 4, !tbaa !9
  %3 = getelementptr inbounds i8, ptr %2, i64 0
  %4 = load i8, ptr %3, align 4, !tbaa !16
  %5 = zext i8 %4 to i64
  %6 = shl i64 %5, 24
  %7 = getelementptr inbounds i8, ptr %2, i64 1
  %8 = load i8, ptr %7, align 1, !tbaa !16
  %9 = zext i8 %8 to i64
  %10 = shl i64 %9, 16
  %11 = or i64 %6, %10
  %12 = getelementptr inbounds i8, ptr %2, i64 2
  %13 = load i8, ptr %12, align 2, !tbaa !16
  %14 = zext i8 %13 to i64
  %15 = shl i64 %14, 8
  %16 = or i64 %11, %15
  %17 = getelementptr inbounds i8, ptr %2, i64 3
  %18 = load i8, ptr %17, align 1, !tbaa !16
  %19 = zext i8 %18 to i64
  %20 = or i64 %16, %19
  %21 = trunc i64 %20 to i32
  ret i32 %21
}

; Function Attrs: inlinehint nounwind uwtable
define internal ptr @fdt_get_property_w(ptr noundef %0, i32 noundef %1, ptr noundef %2, ptr noundef %3) #2 {
  %5 = alloca ptr, align 8
  %6 = alloca i32, align 4
  %7 = alloca ptr, align 8
  %8 = alloca ptr, align 8
  store ptr %0, ptr %5, align 8, !tbaa !3
  store i32 %1, ptr %6, align 4, !tbaa !9
  store ptr %2, ptr %7, align 8, !tbaa !17
  store ptr %3, ptr %8, align 8, !tbaa !27
  %9 = load ptr, ptr %5, align 8, !tbaa !3
  %10 = load i32, ptr %6, align 4, !tbaa !9
  %11 = load ptr, ptr %7, align 8, !tbaa !17
  %12 = load ptr, ptr %8, align 8, !tbaa !27
  %13 = call ptr @fdt_get_property(ptr noundef %9, i32 noundef %10, ptr noundef %11, ptr noundef %12)
  %14 = ptrtoint ptr %13 to i64
  %15 = inttoptr i64 %14 to ptr
  ret ptr %15
}

; Function Attrs: nounwind uwtable
define internal i32 @fdt_rw_probe_(ptr noundef %0) #0 {
  %2 = alloca i32, align 4
  %3 = alloca ptr, align 8
  %4 = alloca i32, align 4
  %5 = alloca i32, align 4
  store ptr %0, ptr %3, align 8, !tbaa !3
  call void @llvm.lifetime.start.p0(i64 4, ptr %4) #7
  %6 = load ptr, ptr %3, align 8, !tbaa !3
  %7 = call i32 @fdt_ro_probe_(ptr noundef %6)
  store i32 %7, ptr %4, align 4, !tbaa !9
  %8 = icmp slt i32 %7, 0
  br i1 %8, label %9, label %11

9:                                                ; preds = %1
  %10 = load i32, ptr %4, align 4, !tbaa !9
  store i32 %10, ptr %2, align 4
  store i32 1, ptr %5, align 4
  br label %12

11:                                               ; preds = %1
  store i32 0, ptr %5, align 4
  br label %12

12:                                               ; preds = %11, %9
  call void @llvm.lifetime.end.p0(i64 4, ptr %4) #7
  %13 = load i32, ptr %5, align 4
  switch i32 %13, label %38 [
    i32 0, label %14
    i32 1, label %36
  ]

14:                                               ; preds = %12
  %15 = load ptr, ptr %3, align 8, !tbaa !3
  %16 = getelementptr inbounds nuw %struct.fdt_header, ptr %15, i32 0, i32 5
  %17 = call i32 @fdt32_ld(ptr noundef %16)
  %18 = icmp ult i32 %17, 17
  br i1 %18, label %19, label %20

19:                                               ; preds = %14
  store i32 -10, ptr %2, align 4
  br label %36

20:                                               ; preds = %14
  %21 = load ptr, ptr %3, align 8, !tbaa !3
  %22 = load ptr, ptr %3, align 8, !tbaa !3
  %23 = getelementptr inbounds nuw %struct.fdt_header, ptr %22, i32 0, i32 9
  %24 = call i32 @fdt32_ld(ptr noundef %23)
  %25 = call i32 @fdt_blocks_misordered_(ptr noundef %21, i32 noundef 16, i32 noundef %24)
  %26 = icmp ne i32 %25, 0
  br i1 %26, label %27, label %28

27:                                               ; preds = %20
  store i32 -12, ptr %2, align 4
  br label %36

28:                                               ; preds = %20
  %29 = load ptr, ptr %3, align 8, !tbaa !3
  %30 = getelementptr inbounds nuw %struct.fdt_header, ptr %29, i32 0, i32 5
  %31 = call i32 @fdt32_ld(ptr noundef %30)
  %32 = icmp ugt i32 %31, 17
  br i1 %32, label %33, label %35

33:                                               ; preds = %28
  %34 = load ptr, ptr %3, align 8, !tbaa !3
  call void @fdt_set_version(ptr noundef %34, i32 noundef 17)
  br label %35

35:                                               ; preds = %33, %28
  store i32 0, ptr %2, align 4
  br label %36

36:                                               ; preds = %35, %27, %19, %12
  %37 = load i32, ptr %2, align 4
  ret i32 %37

38:                                               ; preds = %12
  unreachable
}

; Function Attrs: nounwind uwtable
define i32 @fdt_appendprop(ptr noundef %0, i32 noundef %1, ptr noundef %2, ptr noundef %3, i32 noundef %4) #0 {
  %6 = alloca i32, align 4
  %7 = alloca ptr, align 8
  %8 = alloca i32, align 4
  %9 = alloca ptr, align 8
  %10 = alloca ptr, align 8
  %11 = alloca i32, align 4
  %12 = alloca ptr, align 8
  %13 = alloca i32, align 4
  %14 = alloca i32, align 4
  %15 = alloca i32, align 4
  %16 = alloca i32, align 4
  %17 = alloca i32, align 4
  store ptr %0, ptr %7, align 8, !tbaa !3
  store i32 %1, ptr %8, align 4, !tbaa !9
  store ptr %2, ptr %9, align 8, !tbaa !17
  store ptr %3, ptr %10, align 8, !tbaa !3
  store i32 %4, ptr %11, align 4, !tbaa !9
  call void @llvm.lifetime.start.p0(i64 8, ptr %12) #7
  call void @llvm.lifetime.start.p0(i64 4, ptr %13) #7
  call void @llvm.lifetime.start.p0(i64 4, ptr %14) #7
  call void @llvm.lifetime.start.p0(i64 4, ptr %15) #7
  call void @llvm.lifetime.start.p0(i64 4, ptr %16) #7
  %18 = load ptr, ptr %7, align 8, !tbaa !3
  %19 = call i32 @fdt_rw_probe_(ptr noundef %18)
  store i32 %19, ptr %16, align 4, !tbaa !9
  %20 = icmp ne i32 %19, 0
  br i1 %20, label %21, label %23

21:                                               ; preds = %5
  %22 = load i32, ptr %16, align 4, !tbaa !9
  store i32 %22, ptr %6, align 4
  store i32 1, ptr %17, align 4
  br label %24

23:                                               ; preds = %5
  store i32 0, ptr %17, align 4
  br label %24

24:                                               ; preds = %23, %21
  call void @llvm.lifetime.end.p0(i64 4, ptr %16) #7
  %25 = load i32, ptr %17, align 4
  switch i32 %25, label %90 [
    i32 0, label %26
  ]

26:                                               ; preds = %24
  %27 = load ptr, ptr %7, align 8, !tbaa !3
  %28 = load i32, ptr %8, align 4, !tbaa !9
  %29 = load ptr, ptr %9, align 8, !tbaa !17
  %30 = call ptr @fdt_get_property_w(ptr noundef %27, i32 noundef %28, ptr noundef %29, ptr noundef %14)
  store ptr %30, ptr %12, align 8, !tbaa !19
  %31 = load ptr, ptr %12, align 8, !tbaa !19
  %32 = icmp ne ptr %31, null
  br i1 %32, label %33, label %72

33:                                               ; preds = %26
  %34 = load i32, ptr %11, align 4, !tbaa !9
  %35 = load i32, ptr %14, align 4, !tbaa !9
  %36 = add nsw i32 %34, %35
  store i32 %36, ptr %15, align 4, !tbaa !9
  %37 = load ptr, ptr %7, align 8, !tbaa !3
  %38 = load ptr, ptr %12, align 8, !tbaa !19
  %39 = getelementptr inbounds nuw %struct.fdt_property, ptr %38, i32 0, i32 3
  %40 = getelementptr inbounds [0 x i8], ptr %39, i64 0, i64 0
  %41 = load i32, ptr %14, align 4, !tbaa !9
  %42 = sext i32 %41 to i64
  %43 = add i64 %42, 4
  %44 = sub i64 %43, 1
  %45 = and i64 %44, -4
  %46 = trunc i64 %45 to i32
  %47 = load i32, ptr %15, align 4, !tbaa !9
  %48 = sext i32 %47 to i64
  %49 = add i64 %48, 4
  %50 = sub i64 %49, 1
  %51 = and i64 %50, -4
  %52 = trunc i64 %51 to i32
  %53 = call i32 @fdt_splice_struct_(ptr noundef %37, ptr noundef %40, i32 noundef %46, i32 noundef %52)
  store i32 %53, ptr %13, align 4, !tbaa !9
  %54 = load i32, ptr %13, align 4, !tbaa !9
  %55 = icmp ne i32 %54, 0
  br i1 %55, label %56, label %58

56:                                               ; preds = %33
  %57 = load i32, ptr %13, align 4, !tbaa !9
  store i32 %57, ptr %6, align 4
  store i32 1, ptr %17, align 4
  br label %90

58:                                               ; preds = %33
  %59 = load i32, ptr %15, align 4, !tbaa !9
  %60 = call i32 @cpu_to_fdt32(i32 noundef %59)
  %61 = load ptr, ptr %12, align 8, !tbaa !19
  %62 = getelementptr inbounds nuw %struct.fdt_property, ptr %61, i32 0, i32 1
  store i32 %60, ptr %62, align 4, !tbaa !23
  %63 = load ptr, ptr %12, align 8, !tbaa !19
  %64 = getelementptr inbounds nuw %struct.fdt_property, ptr %63, i32 0, i32 3
  %65 = getelementptr inbounds [0 x i8], ptr %64, i64 0, i64 0
  %66 = load i32, ptr %14, align 4, !tbaa !9
  %67 = sext i32 %66 to i64
  %68 = getelementptr inbounds i8, ptr %65, i64 %67
  %69 = load ptr, ptr %10, align 8, !tbaa !3
  %70 = load i32, ptr %11, align 4, !tbaa !9
  %71 = sext i32 %70 to i64
  call void @llvm.memcpy.p0.p0.i64(ptr align 1 %68, ptr align 1 %69, i64 %71, i1 false)
  br label %89

72:                                               ; preds = %26
  %73 = load ptr, ptr %7, align 8, !tbaa !3
  %74 = load i32, ptr %8, align 4, !tbaa !9
  %75 = load ptr, ptr %9, align 8, !tbaa !17
  %76 = load i32, ptr %11, align 4, !tbaa !9
  %77 = call i32 @fdt_add_property_(ptr noundef %73, i32 noundef %74, ptr noundef %75, i32 noundef %76, ptr noundef %12)
  store i32 %77, ptr %13, align 4, !tbaa !9
  %78 = load i32, ptr %13, align 4, !tbaa !9
  %79 = icmp ne i32 %78, 0
  br i1 %79, label %80, label %82

80:                                               ; preds = %72
  %81 = load i32, ptr %13, align 4, !tbaa !9
  store i32 %81, ptr %6, align 4
  store i32 1, ptr %17, align 4
  br label %90

82:                                               ; preds = %72
  %83 = load ptr, ptr %12, align 8, !tbaa !19
  %84 = getelementptr inbounds nuw %struct.fdt_property, ptr %83, i32 0, i32 3
  %85 = getelementptr inbounds [0 x i8], ptr %84, i64 0, i64 0
  %86 = load ptr, ptr %10, align 8, !tbaa !3
  %87 = load i32, ptr %11, align 4, !tbaa !9
  %88 = sext i32 %87 to i64
  call void @llvm.memcpy.p0.p0.i64(ptr align 4 %85, ptr align 1 %86, i64 %88, i1 false)
  br label %89

89:                                               ; preds = %82, %58
  store i32 0, ptr %6, align 4
  store i32 1, ptr %17, align 4
  br label %90

90:                                               ; preds = %89, %80, %56, %24
  call void @llvm.lifetime.end.p0(i64 4, ptr %15) #7
  call void @llvm.lifetime.end.p0(i64 4, ptr %14) #7
  call void @llvm.lifetime.end.p0(i64 4, ptr %13) #7
  call void @llvm.lifetime.end.p0(i64 8, ptr %12) #7
  %91 = load i32, ptr %6, align 4
  ret i32 %91
}